Certificate:
    Data:
        Version: 3 (0x2)
        Serial Number: 2 (0x2)
    Signature Algorithm: sha1WithRSAEncryption
        Issuer: C=AU, ST=Some-State, O=Internet Widgits Pty Ltd, CN=CA
        Validity
            Not Before: Mar 20 22:51:59 2021 GMT
            Not After : Mar 20 22:51:59 2022 GMT
        Subject: C=AU, ST=Some-State, O=Internet Widgits Pty Ltd, CN=user2
        Subject Public Key Info:
            Public Key Algorithm: rsaEncryption
                Public-Key: (2048 bit)
                Modulus:
                    00:b8:c3:97:b1:8d:85:6c:f4:ec:a3:61:94:5d:31:
                    14:cf:06:b7:d4:d6:db:aa:f9:15:7b:07:67:95:39:
                    6f:80:3a:57:f7:5f:15:86:91:16:e6:8b:58:ac:66:
                    6b:08:3c:28:b9:d8:66:ea:a3:cf:1b:36:37:e9:7d:
                    43:74:dd:b3:6f:c3:13:0c:ea:57:8f:cd:11:0c:77:
                    87:4b:b4:05:54:59:b7:41:0e:51:91:22:eb:76:cf:
                    d2:42:86:37:6b:c7:53:92:1c:a7:85:21:e4:6c:c1:
                    f3:d9:ba:1b:ad:51:74:9e:64:bc:7a:da:b7:aa:ed:
                    85:f8:c9:35:31:3b:c8:ae:fb:f7:11:90:35:76:59:
                    99:16:e0:87:ca:37:9d:c5:28:18:c8:fa:64:b6:a9:
                    ee:8e:eb:47:49:95:c4:e5:04:db:2d:6a:b6:44:98:
                    f8:d8:9c:21:7f:1a:09:ba:29:a2:72:74:fc:4e:39:
                    1b:d8:47:1f:2f:26:ac:e1:a0:9b:7e:5f:70:e6:c6:
                    28:e8:0e:fd:5e:69:f1:6f:fa:c8:7a:40:d9:7e:5d:
                    a6:ba:6d:fe:70:f3:46:f8:03:02:dd:bb:7f:00:39:
                    7c:ce:18:d1:4f:04:23:1d:bd:14:ac:7d:e3:f4:73:
                    56:69:34:98:05:13:26:fd:1d:c3:b4:81:04:a9:18:
                    9b:59
                Exponent: 65537 (0x10001)
        X509v3 extensions:
            X509v3 Basic Constraints: 
                CA:FALSE
            Netscape Comment: 
                OpenSSL Generated Certificate
            X509v3 Subject Key Identifier: 
                F1:E0:9E:CA:4D:C1:5A:B5:C0:16:34:58:AA:72:BB:82:EC:6B:18:27
            X509v3 Authority Key Identifier: 
                keyid:90:53:CE:23:EC:44:C9:F0:22:4D:12:D2:A8:00:ED:D7:F3:B4:08:7A

    Signature Algorithm: sha1WithRSAEncryption
         2f:3c:7b:b0:63:2b:68:3c:71:d3:72:50:7f:3f:77:81:5c:9a:
         bf:76:54:e3:df:8e:f1:2a:8b:30:8e:c8:8a:f2:d7:46:48:ca:
         b8:98:e7:92:3f:bf:6c:82:40:fb:bc:ff:66:fe:e4:1d:f9:91:
         f8:65:a5:2c:2a:91:78:6f:45:24:8b:3f:20:18:60:cb:e2:82:
         01:29:a4:c0:57:39:97:96:bc:a5:23:d6:6a:06:7e:84:82:cf:
         7c:84:5f:63:45:eb:17:3d:12:80:6e:1c:53:be:e7:b4:09:83:
         3d:3d:42:0f:3a:ad:d1:ec:32:51:f1:e0:9a:ed:6b:6b:bb:a1:
         e7:97:4f:e5:53:59:af:c8:74:ca:d7:29:5f:2d:bc:b7:3f:c2:
         22:81:7e:09:17:6b:d9:32:67:6d:6a:98:32:6e:14:cd:9f:5b:
         0e:5d:13:f3:74:4d:e3:25:9f:86:ee:38:01:b0:eb:76:0c:b5:
         10:82:5c:93:61:aa:18:d1:a7:99:bd:db:84:6c:dd:65:80:17:
         a8:19:86:46:ee:9a:aa:93:64:ec:47:1d:76:67:39:40:5a:f8:
         0d:21:f9:4f:11:44:c3:02:ba:1b:e6:cb:09:ad:38:da:c4:8c:
         ef:e8:d4:ee:bb:77:85:6d:ee:ef:d5:7f:b3:01:23:59:3e:17:
         35:22:a9:a5
-----BEGIN CERTIFICATE-----
MIIDnTCCAoWgAwIBAgIBAjANBgkqhkiG9w0BAQUFADBSMQswCQYDVQQGEwJBVTET
MBEGA1UECAwKU29tZS1TdGF0ZTEhMB8GA1UECgwYSW50ZXJuZXQgV2lkZ2l0cyBQ
dHkgTHRkMQswCQYDVQQDDAJDQTAeFw0yMTAzMjAyMjUxNTlaFw0yMjAzMjAyMjUx
NTlaMFUxCzAJBgNVBAYTAkFVMRMwEQYDVQQIDApTb21lLVN0YXRlMSEwHwYDVQQK
DBhJbnRlcm5ldCBXaWRnaXRzIFB0eSBMdGQxDjAMBgNVBAMMBXVzZXIyMIIBIjAN
BgkqhkiG9w0BAQEFAAOCAQ8AMIIBCgKCAQEAuMOXsY2FbPTso2GUXTEUzwa31Nbb
qvkVewdnlTlvgDpX918VhpEW5otYrGZrCDwoudhm6qPPGzY36X1DdN2zb8MTDOpX
j80RDHeHS7QFVFm3QQ5RkSLrds/SQoY3a8dTkhynhSHkbMHz2bobrVF0nmS8etq3
qu2F+Mk1MTvIrvv3EZA1dlmZFuCHyjedxSgYyPpktqnujutHSZXE5QTbLWq2RJj4
2JwhfxoJuimicnT8Tjkb2EcfLyas4aCbfl9w5sYo6A79Xmnxb/rIekDZfl2mum3+
cPNG+AMC3bt/ADl8zhjRTwQjHb0UrH3j9HNWaTSYBRMm/R3DtIEEqRibWQIDAQAB
o3sweTAJBgNVHRMEAjAAMCwGCWCGSAGG+EIBDQQfFh1PcGVuU1NMIEdlbmVyYXRl
ZCBDZXJ0aWZpY2F0ZTAdBgNVHQ4EFgQU8eCeyk3BWrXAFjRYqnK7guxrGCcwHwYD
VR0jBBgwFoAUkFPOI+xEyfAiTRLSqADt1/O0CHowDQYJKoZIhvcNAQEFBQADggEB
AC88e7BjK2g8cdNyUH8/d4Fcmr92VOPfjvEqizCOyIry10ZIyriY55I/v2yCQPu8
/2b+5B35kfhlpSwqkXhvRSSLPyAYYMviggEppMBXOZeWvKUj1moGfoSCz3yEX2NF
6xc9EoBuHFO+57QJgz09Qg86rdHsMlHx4Jrta2u7oeeXT+VTWa/IdMrXKV8tvLc/
wiKBfgkXa9kyZ21qmDJuFM2fWw5dE/N0TeMln4buOAGw63YMtRCCXJNhqhjRp5m9
24Rs3WWAF6gZhkbumqqTZOxHHXZnOUBa+A0h+U8RRMMCuhvmywmtONrEjO/o1O67
d4Vt7u/Vf7MBI1k+FzUiqaU=
-----END CERTIFICATE-----
